; Function Attrs: mustprogress nofree norecurse nosync nounwind willreturn memory(argmem: read) uwtable
define noundef double @_ZNK10open_spiel9coin_game8CoinGame10MaxUtilityEv(ptr nocapture noundef nonnull readonly align 8 dereferenceable(304) %0) unnamed_addr #12 align 2 {
  %2 = getelementptr inbounds nuw i8, ptr %0, i64 296
  %3 = load i32, ptr %2, align 8
  %4 = getelementptr inbounds nuw i8, ptr %0, i64 300
  %5 = load i32, ptr %4, align 4
  %6 = mul nsw i32 %5, %3
  %7 = sitofp i32 %6 to double
  %square = fmul double %7, %7
  ret double %square
}